target datalayout = "e-m:e-p270:32:32-p271:32:32-p272:64:64-i64:64-i128:128-f80:128-n8:16:32:64-S128"
target triple = "x86_64-pc-linux-gnu"

%struct.nk_rect = type { float, float, float, float }
%struct.nk_vec2 = type { float, float }
%struct.nk_color = type { i8, i8, i8, i8 }
%struct.nk_allocator = type { %union.nk_handle, ptr, ptr }
%union.nk_handle = type { ptr }
%struct.nk_buffer = type { [2 x %struct.nk_buffer_marker], %struct.nk_allocator, i32, %struct.nk_memory, float, i64, i64, i64, i64 }
%struct.nk_buffer_marker = type { i32, i64 }
%struct.nk_memory = type { ptr, i64 }
%struct.nk_str = type { %struct.nk_buffer, i32 }
%struct.nk_command_buffer = type { ptr, %struct.nk_rect, i32, %union.nk_handle, i64, i64, i64 }
%struct.nk_image = type { %union.nk_handle, i16, i16, [4 x i16] }
%struct.nk_nine_slice = type { %struct.nk_image, i16, i16, i16, i16 }
%struct.nk_draw_list = type { %struct.nk_rect, [12 x %struct.nk_vec2], %struct.nk_convert_config, ptr, ptr, ptr, i32, i32, i32, i64, i32, i32, i32, i32 }
%struct.nk_convert_config = type { float, i32, i32, i32, i32, i32, %struct.nk_draw_null_texture, ptr, i64, i64 }
%struct.nk_draw_null_texture = type { %union.nk_handle, %struct.nk_vec2 }
%struct.nk_context = type { %struct.nk_input, %struct.nk_style, %struct.nk_buffer, %struct.nk_clipboard, i32, i32, %struct.nk_configuration_stacks, float, %struct.nk_draw_list, %struct.nk_text_edit, %struct.nk_command_buffer, i32, i32, %struct.nk_pool, ptr, ptr, ptr, ptr, ptr, i32, i32 }
%struct.nk_input = type { %struct.nk_keyboard, %struct.nk_mouse }
%struct.nk_keyboard = type { [30 x %struct.nk_key], [16 x i8], i32 }
%struct.nk_key = type { i32, i32 }
%struct.nk_mouse = type { [4 x %struct.nk_mouse_button], %struct.nk_vec2, %struct.nk_vec2, %struct.nk_vec2, %struct.nk_vec2, i8, i8, i8 }
%struct.nk_mouse_button = type { i32, i32, %struct.nk_vec2 }
%struct.nk_style = type { ptr, [7 x ptr], ptr, ptr, i32, %struct.nk_style_text, %struct.nk_style_button, %struct.nk_style_button, %struct.nk_style_button, %struct.nk_style_toggle, %struct.nk_style_toggle, %struct.nk_style_selectable, %struct.nk_style_slider, %struct.nk_style_knob, %struct.nk_style_progress, %struct.nk_style_property, %struct.nk_style_edit, %struct.nk_style_chart, %struct.nk_style_scrollbar, %struct.nk_style_scrollbar, %struct.nk_style_tab, %struct.nk_style_combo, %struct.nk_style_window }
%struct.nk_style_text = type { %struct.nk_color, %struct.nk_vec2, float, float }
%struct.nk_style_button = type { %struct.nk_style_item, %struct.nk_style_item, %struct.nk_style_item, %struct.nk_color, float, %struct.nk_color, %struct.nk_color, %struct.nk_color, %struct.nk_color, i32, float, float, float, %struct.nk_vec2, %struct.nk_vec2, %struct.nk_vec2, float, %union.nk_handle, ptr, ptr }
%struct.nk_style_item = type { i32, %union.nk_style_item_data }
%union.nk_style_item_data = type { %struct.nk_nine_slice }
%struct.nk_style_toggle = type { %struct.nk_style_item, %struct.nk_style_item, %struct.nk_style_item, %struct.nk_color, %struct.nk_style_item, %struct.nk_style_item, %struct.nk_color, %struct.nk_color, %struct.nk_color, %struct.nk_color, i32, %struct.nk_vec2, %struct.nk_vec2, float, float, float, float, %union.nk_handle, ptr, ptr }
%struct.nk_style_selectable = type { %struct.nk_style_item, %struct.nk_style_item, %struct.nk_style_item, %struct.nk_style_item, %struct.nk_style_item, %struct.nk_style_item, %struct.nk_color, %struct.nk_color, %struct.nk_color, %struct.nk_color, %struct.nk_color, %struct.nk_color, %struct.nk_color, i32, float, %struct.nk_vec2, %struct.nk_vec2, %struct.nk_vec2, float, float, %union.nk_handle, ptr, ptr }
%struct.nk_style_slider = type { %struct.nk_style_item, %struct.nk_style_item, %struct.nk_style_item, %struct.nk_color, %struct.nk_color, %struct.nk_color, %struct.nk_color, %struct.nk_color, %struct.nk_style_item, %struct.nk_style_item, %struct.nk_style_item, float, float, float, %struct.nk_vec2, %struct.nk_vec2, %struct.nk_vec2, float, float, i32, %struct.nk_style_button, %struct.nk_style_button, i32, i32, %union.nk_handle, ptr, ptr }
%struct.nk_style_knob = type { %struct.nk_style_item, %struct.nk_style_item, %struct.nk_style_item, %struct.nk_color, %struct.nk_color, %struct.nk_color, %struct.nk_color, %struct.nk_color, %struct.nk_color, %struct.nk_color, %struct.nk_color, float, float, %struct.nk_vec2, %struct.nk_vec2, float, float, float, %union.nk_handle, ptr, ptr }
%struct.nk_style_progress = type { %struct.nk_style_item, %struct.nk_style_item, %struct.nk_style_item, %struct.nk_color, %struct.nk_style_item, %struct.nk_style_item, %struct.nk_style_item, %struct.nk_color, float, float, float, float, %struct.nk_vec2, float, float, %union.nk_handle, ptr, ptr }
%struct.nk_style_property = type { %struct.nk_style_item, %struct.nk_style_item, %struct.nk_style_item, %struct.nk_color, %struct.nk_color, %struct.nk_color, %struct.nk_color, i32, i32, float, float, %struct.nk_vec2, float, float, %struct.nk_style_edit, %struct.nk_style_button, %struct.nk_style_button, %union.nk_handle, ptr, ptr }
%struct.nk_style_edit = type { %struct.nk_style_item, %struct.nk_style_item, %struct.nk_style_item, %struct.nk_color, %struct.nk_style_scrollbar, %struct.nk_color, %struct.nk_color, %struct.nk_color, %struct.nk_color, %struct.nk_color, %struct.nk_color, %struct.nk_color, %struct.nk_color, %struct.nk_color, %struct.nk_color, %struct.nk_color, float, float, float, %struct.nk_vec2, %struct.nk_vec2, float, float, float }
%struct.nk_style_chart = type { %struct.nk_style_item, %struct.nk_color, %struct.nk_color, %struct.nk_color, float, float, %struct.nk_vec2, float, float, i32 }
%struct.nk_style_scrollbar = type { %struct.nk_style_item, %struct.nk_style_item, %struct.nk_style_item, %struct.nk_color, %struct.nk_style_item, %struct.nk_style_item, %struct.nk_style_item, %struct.nk_color, float, float, float, float, %struct.nk_vec2, float, float, i32, %struct.nk_style_button, %struct.nk_style_button, i32, i32, %union.nk_handle, ptr, ptr }
%struct.nk_style_tab = type { %struct.nk_style_item, %struct.nk_color, %struct.nk_color, %struct.nk_style_button, %struct.nk_style_button, %struct.nk_style_button, %struct.nk_style_button, i32, i32, float, float, float, %struct.nk_vec2, %struct.nk_vec2, float, float }
%struct.nk_style_combo = type { %struct.nk_style_item, %struct.nk_style_item, %struct.nk_style_item, %struct.nk_color, %struct.nk_color, %struct.nk_color, %struct.nk_color, %struct.nk_color, %struct.nk_color, %struct.nk_color, %struct.nk_style_button, i32, i32, i32, float, float, %struct.nk_vec2, %struct.nk_vec2, %struct.nk_vec2, float, float }
%struct.nk_style_window = type { %struct.nk_style_window_header, %struct.nk_style_item, %struct.nk_color, %struct.nk_color, %struct.nk_color, %struct.nk_color, %struct.nk_color, %struct.nk_color, %struct.nk_color, %struct.nk_color, %struct.nk_style_item, float, float, float, float, float, float, float, float, float, %struct.nk_vec2, %struct.nk_vec2, %struct.nk_vec2, %struct.nk_vec2, %struct.nk_vec2, %struct.nk_vec2, %struct.nk_vec2, %struct.nk_vec2, %struct.nk_vec2, %struct.nk_vec2 }
%struct.nk_style_window_header = type { %struct.nk_style_item, %struct.nk_style_item, %struct.nk_style_item, %struct.nk_style_button, %struct.nk_style_button, i32, i32, i32, %struct.nk_color, %struct.nk_color, %struct.nk_color, i32, %struct.nk_vec2, %struct.nk_vec2, %struct.nk_vec2 }
%struct.nk_clipboard = type { %union.nk_handle, ptr, ptr }
%struct.nk_configuration_stacks = type { %struct.nk_config_stack_style_item, %struct.nk_config_stack_float, %struct.nk_config_stack_vec2, %struct.nk_config_stack_flags, %struct.nk_config_stack_color, %struct.nk_config_stack_user_font, %struct.nk_config_stack_button_behavior }
%struct.nk_config_stack_style_item = type { i32, [16 x %struct.nk_config_stack_style_item_element] }
%struct.nk_config_stack_style_item_element = type { ptr, %struct.nk_style_item }
%struct.nk_config_stack_float = type { i32, [32 x %struct.nk_config_stack_float_element] }
%struct.nk_config_stack_float_element = type { ptr, float }
%struct.nk_config_stack_vec2 = type { i32, [16 x %struct.nk_config_stack_vec2_element] }
%struct.nk_config_stack_vec2_element = type { ptr, %struct.nk_vec2 }
%struct.nk_config_stack_flags = type { i32, [32 x %struct.nk_config_stack_flags_element] }
%struct.nk_config_stack_flags_element = type { ptr, i32 }
%struct.nk_config_stack_color = type { i32, [32 x %struct.nk_config_stack_color_element] }
%struct.nk_config_stack_color_element = type { ptr, %struct.nk_color }
%struct.nk_config_stack_user_font = type { i32, [8 x %struct.nk_config_stack_user_font_element] }
%struct.nk_config_stack_user_font_element = type { ptr, ptr }
%struct.nk_config_stack_button_behavior = type { i32, [8 x %struct.nk_config_stack_button_behavior_element] }
%struct.nk_config_stack_button_behavior_element = type { ptr, i32 }
%struct.nk_text_edit = type { %struct.nk_clipboard, %struct.nk_str, ptr, %struct.nk_vec2, i32, i32, i32, i8, i8, i8, i8, i8, i8, i8, float, %struct.nk_text_undo_state }
%struct.nk_text_undo_state = type { [99 x %struct.nk_text_undo_record], [999 x i32], i16, i16, i16, i16 }
%struct.nk_text_undo_record = type { i32, i16, i16, i16 }
%struct.nk_pool = type { %struct.nk_allocator, i32, i32, ptr, ptr, i32, i64, i64 }

; Function Attrs: nounwind uwtable
define void @nk_input_scroll(ptr noundef %0, <2 x float> %1) #2 {
  %3 = alloca %struct.nk_vec2, align 4
  %4 = alloca ptr, align 8
  store <2 x float> %1, ptr %3, align 4
  store ptr %0, ptr %4, align 8, !tbaa !372
  %5 = load ptr, ptr %4, align 8, !tbaa !372
  %6 = icmp ne ptr %5, null
  br i1 %6, label %8, label %7

7:                                                ; preds = %2
  br label %27

8:                                                ; preds = %2
  %9 = getelementptr inbounds nuw %struct.nk_vec2, ptr %3, i32 0, i32 0
  %10 = load float, ptr %9, align 4, !tbaa !15
  %11 = load ptr, ptr %4, align 8, !tbaa !372
  %12 = getelementptr inbounds nuw %struct.nk_context, ptr %11, i32 0, i32 0
  %13 = getelementptr inbounds nuw %struct.nk_input, ptr %12, i32 0, i32 1
  %14 = getelementptr inbounds nuw %struct.nk_mouse, ptr %13, i32 0, i32 4
  %15 = getelementptr inbounds nuw %struct.nk_vec2, ptr %14, i32 0, i32 0
  %16 = load float, ptr %15, align 4, !tbaa !812
  %17 = fadd float %16, %10
  store float %17, ptr %15, align 4, !tbaa !812
  %18 = getelementptr inbounds nuw %struct.nk_vec2, ptr %3, i32 0, i32 1
  %19 = load float, ptr %18, align 4, !tbaa !17
  %20 = load ptr, ptr %4, align 8, !tbaa !372
  %21 = getelementptr inbounds nuw %struct.nk_context, ptr %20, i32 0, i32 0
  %22 = getelementptr inbounds nuw %struct.nk_input, ptr %21, i32 0, i32 1
  %23 = getelementptr inbounds nuw %struct.nk_mouse, ptr %22, i32 0, i32 4
  %24 = getelementptr inbounds nuw %struct.nk_vec2, ptr %23, i32 0, i32 1
  %25 = load float, ptr %24, align 4, !tbaa !813
  %26 = fadd float %25, %19
  store float %26, ptr %24, align 4, !tbaa !813
  br label %27

27:                                               ; preds = %8, %7
  ret void
}