; Function Attrs: mustprogress nofree norecurse nosync nounwind willreturn memory(argmem: readwrite) uwtable
define void @nk_input_scroll(ptr noundef captures(address_is_null) %0, <2 x float> %1) local_unnamed_addr #31 {
  %.not = icmp eq ptr %0, null
  br i1 %.not, label %10, label %3

3:                                                ; preds = %2
  %.sroa.0.0.vec.extract = extractelement <2 x float> %1, i64 0
  %4 = getelementptr inbounds nuw i8, ptr %0, i64 348
  %5 = load float, ptr %4, align 4, !tbaa !738
  %6 = fadd float %.sroa.0.0.vec.extract, %5
  store float %6, ptr %4, align 4, !tbaa !738
  %.sroa.0.4.vec.extract = extractelement <2 x float> %1, i64 1
  %7 = getelementptr inbounds nuw i8, ptr %0, i64 352
  %8 = load float, ptr %7, align 4, !tbaa !739
  %9 = fadd float %.sroa.0.4.vec.extract, %8
  store float %9, ptr %7, align 4, !tbaa !739
  br label %10

10:                                               ; preds = %2, %3
  ret void
}